(dp0
S'show_imports'
p1
I0
sS'prj_name'
p2
S'ext'
p3
sS'docformat'
p4
S'restructuredtext'
p5
sS'inheritance'
p6
S'included'
p7
sS'help'
p8
NsS'modules'
p9
(S'/home/stymek/src/PlantGL/src/plantgl/ext/absolute_shapes.py'
p10
S'/home/stymek/src/PlantGL/src/plantgl/ext/all.py'
p11
S'/home/stymek/src/PlantGL/src/plantgl/ext/interactive_mode.py'
p12
S'/home/stymek/src/PlantGL/src/plantgl/ext/material.py'
p13
tp14
sS'private'
p15
I1
sS'prj_url'
p16
NsS'introspect_or_parse'
p17
S'both'
p18
sS'frames'
p19
I1
sS'css'
p20
S'green'
p21
sS'target'
p22
S'html'
p23
s.